#include <math.h>
#include <stdio.h>
#include <stdlib.h>
#include <string.h>

int main()
{
	int n,k,i,j;
	int c1=0;
	int c2=0;
	int a[100000];
	scanf("%d",&n);
	for (i=0;i<n;i++)
	   scanf("%d",&a[i]);
    scanf("%d",&k);
    for (i=0;i<n;i++){
       if (a[i]==k) c2++;
    }
    for (i=0;i<n;i++){
       if (a[i]==k){
	      for (j=i+1;j<n;j++){
               if (a[j]!=k){
               	  a[i]=a[j];
               	  a[j]=k;
               	  break;
               }
	      }
       }
    }
    for (i=0;i<n-c2-1;i++)
	   printf("%d ",a[i]); 
	   printf("%d",a[n-c2-1]);
return 0;	   
}
